; Function Attrs: mustprogress uwtable
define void @_ZNK4cvc58internal7Printer15toStreamCmdPushERSoj(ptr nocapture nonnull readnone align 8 %this, ptr noundef nonnull align 8 dereferenceable(8) %out, i32 %nscopes) unnamed_addr #4 align 2 personality ptr @__gxx_personality_v0 {
entry:
  %ref.tmp = alloca %"class.std::__cxx11::basic_string", align 8
  %ref.tmp2 = alloca %"class.std::allocator", align 1
  call void @_ZNSaIcEC1Ev(ptr noundef nonnull align 1 dereferenceable(1) %ref.tmp2) #16
  %call.i2 = invoke noundef ptr @_ZNSt7__cxx1112basic_stringIcSt11char_traitsIcESaIcEE13_M_local_dataEv(ptr noundef nonnull align 8 dereferenceable(32) %ref.tmp)
          to label %call.i.noexc unwind label %lpad

call.i.noexc:                                     ; preds = %entry
  invoke void @_ZNSt7__cxx1112basic_stringIcSt11char_traitsIcESaIcEE12_Alloc_hiderC1EPcRKS3_(ptr noundef nonnull align 8 dereferenceable(8) %ref.tmp, ptr noundef %call.i2, ptr noundef nonnull align 1 dereferenceable(1) %ref.tmp2)
          to label %.noexc unwind label %lpad

.noexc:                                           ; preds = %call.i.noexc
  invoke void @_ZNSt7__cxx1112basic_stringIcSt11char_traitsIcESaIcEE12_M_constructIPKcEEvT_S8_St20forward_iterator_tag(ptr noundef nonnull align 8 dereferenceable(32) %ref.tmp, ptr noundef nonnull @.str.23, ptr noundef nonnull getelementptr inbounds ([5 x i8], ptr @.str.23, i64 0, i64 4))
          to label %invoke.cont unwind label %lpad.i

lpad.i:                                           ; preds = %.noexc
  %0 = landingpad { ptr, i32 }
          cleanup
  call void @_ZNSaIcED2Ev(ptr noundef nonnull align 1 dereferenceable(1) %ref.tmp) #16
  br label %ehcleanup

invoke.cont:                                      ; preds = %.noexc
  %call.i4 = invoke noundef nonnull align 8 dereferenceable(8) ptr @_ZStlsISt11char_traitsIcEERSt13basic_ostreamIcT_ES5_PKc(ptr noundef nonnull align 8 dereferenceable(8) %out, ptr noundef nonnull @.str.12)
          to label %call.i.noexc3 unwind label %lpad3

call.i.noexc3:                                    ; preds = %invoke.cont
  %call2.i5 = invoke noundef nonnull align 8 dereferenceable(8) ptr @_ZStlsIcSt11char_traitsIcESaIcEERSt13basic_ostreamIT_T0_ES7_RKNSt7__cxx1112basic_stringIS4_S5_T1_EE(ptr noundef nonnull align 8 dereferenceable(8) %call.i4, ptr noundef nonnull align 8 dereferenceable(32) %ref.tmp)
          to label %call2.i.noexc unwind label %lpad3

call2.i.noexc:                                    ; preds = %call.i.noexc3
  %call3.i6 = invoke noundef nonnull align 8 dereferenceable(8) ptr @_ZStlsISt11char_traitsIcEERSt13basic_ostreamIcT_ES5_PKc(ptr noundef nonnull align 8 dereferenceable(8) %call2.i5, ptr noundef nonnull @.str.14)
          to label %invoke.cont4 unwind label %lpad3

invoke.cont4:                                     ; preds = %call2.i.noexc
  call void @_ZNSt7__cxx1112basic_stringIcSt11char_traitsIcESaIcEED1Ev(ptr noundef nonnull align 8 dereferenceable(32) %ref.tmp) #16
  call void @_ZNSaIcED1Ev(ptr noundef nonnull align 1 dereferenceable(1) %ref.tmp2) #16
  ret void

lpad:                                             ; preds = %call.i.noexc, %entry
  %1 = landingpad { ptr, i32 }
          cleanup
  br label %ehcleanup

lpad3:                                            ; preds = %call2.i.noexc, %call.i.noexc3, %invoke.cont
  %2 = landingpad { ptr, i32 }
          cleanup
  call void @_ZNSt7__cxx1112basic_stringIcSt11char_traitsIcESaIcEED1Ev(ptr noundef nonnull align 8 dereferenceable(32) %ref.tmp) #16
  br label %ehcleanup

ehcleanup:                                        ; preds = %lpad, %lpad.i, %lpad3
  %.pn = phi { ptr, i32 } [ %2, %lpad3 ], [ %1, %lpad ], [ %0, %lpad.i ]
  call void @_ZNSaIcED1Ev(ptr noundef nonnull align 1 dereferenceable(1) %ref.tmp2) #16
  resume { ptr, i32 } %.pn
}